;
; Definition file of libpoppler-glib-8.dll
; Automatic generated by gendef
; written by Kai Tietz 2008
;
LIBRARY "libpoppler-glib-8.dll"
EXPORTS
_Z13dest_new_gotoP16_PopplerDocumentP8LinkDest
_Z17_poppler_page_newP16_PopplerDocumentP4Pagei
_Z18_poppler_annot_newP5Annot
_Z18_poppler_layer_newP16_PopplerDocumentP6_LayerP6_GList
_Z18_poppler_media_newP14MediaRendition
_Z18_poppler_movie_newP5Movie
_Z19_poppler_action_newP16_PopplerDocumentP10LinkActionPKc
_Z22_poppler_dest_new_gotoP16_PopplerDocumentP8LinkDest
_Z23_poppler_annot_line_newP5Annot
_Z23_poppler_annot_text_newP5Annot
_Z23_poppler_attachment_newP8FileSpec
_Z23_poppler_form_field_newP16_PopplerDocumentP10FormWidget
_Z24_poppler_annot_movie_newP5Annot
_Z25_poppler_annot_circle_newP5Annot
_Z25_poppler_annot_screen_newP16_PopplerDocumentP5Annot
_Z25_poppler_annot_square_newP5Annot
_Z27_poppler_goo_string_to_utf8P9GooString
_Z28_poppler_annot_free_text_newP5Annot
_Z28_poppler_document_get_layersP16_PopplerDocument
_Z30_poppler_annot_text_markup_newP5Annot
_Z34_poppler_annot_file_attachment_newP5Annot
_Z34_poppler_convert_pdf_date_to_gtimeP9GooStringPx
_Z35_poppler_document_get_layer_rbgroupP16_PopplerDocumentP6_Layer
_Z6printfPKcz
_Z7fprintfP6_iobufPKcz
_ZN10BaseStream11getFileNameEv
_ZN10BaseStream13getBaseStreamEv
_ZN10BaseStream18getUndecodedStreamEv
_ZN10BaseStream7getDictEv
_ZN10BaseStream8isBinaryEb
_ZN10BaseStream9getLengthEv
_ZN10CairoImage8setImageEP14_cairo_surface
_ZN10CairoImageC1Edddd
_ZN10CairoImageC2Edddd
_ZN10CairoImageD1Ev
_ZN10CairoImageD2Ev
_ZN11JBIG2Stream16getGlobalsStreamEv
_ZN11JBIG2Stream19getGlobalsStreamRefEv
_ZN13EnumNameValueI24PopplerStructureFormRoleE14attribute_typeE DATA
_ZN13EnumNameValueI24PopplerStructureFormRoleE6valuesE DATA
_ZN13EnumNameValueI25PopplerStructureFormStateE14attribute_typeE DATA
_ZN13EnumNameValueI25PopplerStructureFormStateE6valuesE DATA
_ZN13EnumNameValueI25PopplerStructurePlacementE14attribute_typeE DATA
_ZN13EnumNameValueI25PopplerStructurePlacementE6valuesE DATA
_ZN13EnumNameValueI25PopplerStructureRubyAlignE14attribute_typeE DATA
_ZN13EnumNameValueI25PopplerStructureRubyAlignE6valuesE DATA
_ZN13EnumNameValueI25PopplerStructureTextAlignE14attribute_typeE DATA
_ZN13EnumNameValueI25PopplerStructureTextAlignE6valuesE DATA
_ZN13EnumNameValueI26PopplerStructureBlockAlignE14attribute_typeE DATA
_ZN13EnumNameValueI26PopplerStructureBlockAlignE6valuesE DATA
_ZN13EnumNameValueI26PopplerStructureTableScopeE14attribute_typeE DATA
_ZN13EnumNameValueI26PopplerStructureTableScopeE6valuesE DATA
_ZN13EnumNameValueI27PopplerStructureBorderStyleE14attribute_typeE DATA
_ZN13EnumNameValueI27PopplerStructureBorderStyleE6valuesE DATA
_ZN13EnumNameValueI27PopplerStructureInlineAlignE14attribute_typeE DATA
_ZN13EnumNameValueI27PopplerStructureInlineAlignE6valuesE DATA
_ZN13EnumNameValueI27PopplerStructureWritingModeE14attribute_typeE DATA
_ZN13EnumNameValueI27PopplerStructureWritingModeE6valuesE DATA
_ZN13EnumNameValueI28PopplerStructureRubyPositionE14attribute_typeE DATA
_ZN13EnumNameValueI28PopplerStructureRubyPositionE6valuesE DATA
_ZN13EnumNameValueI29PopplerStructureListNumberingE14attribute_typeE DATA
_ZN13EnumNameValueI29PopplerStructureListNumberingE6valuesE DATA
_ZN13EnumNameValueI30PopplerStructureTextDecorationE14attribute_typeE DATA
_ZN13EnumNameValueI30PopplerStructureTextDecorationE6valuesE DATA
_ZN13EnumNameValueI32PopplerStructureGlyphOrientationE14attribute_typeE DATA
_ZN13EnumNameValueI32PopplerStructureGlyphOrientationE6valuesE DATA
_ZN14CairoOutputDev10updateFontEP8GfxState
_ZN14CairoOutputDev10upsideDownEv
_ZN14CairoOutputDev11beginStringEP8GfxStateP9GooString
_ZN14CairoOutputDev11setMimeDataEP8GfxStateP6StreamP6ObjectP16GfxImageColorMapP14_cairo_surface
_ZN14CairoOutputDev11setSoftMaskEP8GfxStatePdbP8FunctionP8GfxColor
_ZN14CairoOutputDev11setTextPageEP8TextPage
_ZN14CairoOutputDev11useDrawCharEv
_ZN14CairoOutputDev12endType3CharEP8GfxState
_ZN14CairoOutputDev12restoreStateEP8GfxState
_ZN14CairoOutputDev12setAntialiasE16_cairo_antialias
_ZN14CairoOutputDev13clearSoftMaskEP8GfxState
_ZN14CairoOutputDev13drawImageMaskEP8GfxStateP6ObjectP6Streamiibbb
_ZN14CairoOutputDev13endActualTextEP8GfxState
_ZN14CairoOutputDev13endTextObjectEP8GfxState
_ZN14CairoOutputDev13getScaledSizeEPK13_cairo_matrixiiPiS3_
_ZN14CairoOutputDev13getStreamDataEP6StreamPPcPi
_ZN14CairoOutputDev13setDefaultCTMEPd
_ZN14CairoOutputDev13updateLineCapEP8GfxState
_ZN14CairoOutputDev14beginType3CharEP8GfxStateddddjPji
_ZN14CairoOutputDev14updateFlatnessEP8GfxState
_ZN14CairoOutputDev14updateLineDashEP8GfxState
_ZN14CairoOutputDev14updateLineJoinEP8GfxState
_ZN14CairoOutputDev14useShadedFillsEi
_ZN14CairoOutputDev15axialShadedFillEP8GfxStateP15GfxAxialShadingdd
_ZN14CairoOutputDev15beginActualTextEP8GfxStateP9GooString
_ZN14CairoOutputDev15beginTextObjectEP8GfxState
_ZN14CairoOutputDev15drawMaskedImageEP8GfxStateP6ObjectP6StreamiiP16GfxImageColorMapbS5_iibb
_ZN14CairoOutputDev15updateBlendModeEP8GfxState
_ZN14CairoOutputDev15updateFillColorEP8GfxState
_ZN14CairoOutputDev15updateLineWidthEP8GfxState
_ZN14CairoOutputDev16clipToStrokePathEP8GfxState
_ZN14CairoOutputDev16radialShadedFillEP8GfxStateP16GfxRadialShadingdd
_ZN14CairoOutputDev16updateMiterLimitEP8GfxState
_ZN14CairoOutputDev16useFillColorStopEv
_ZN14CairoOutputDev17alignStrokeCoordsEP10GfxSubpathiPdS2_
_ZN14CairoOutputDev17needClipToCropBoxEv
_ZN14CairoOutputDev17tilingPatternFillEP8GfxStateP3GfxP7CatalogP6ObjectPdiiP4DictS8_S8_iiiidd
_ZN14CairoOutputDev17updateFillOpacityEP8GfxState
_ZN14CairoOutputDev17updateStrokeColorEP8GfxState
_ZN14CairoOutputDev18ft_lib_initializedE DATA
_ZN14CairoOutputDev18functionShadedFillEP8GfxStateP18GfxFunctionShading
_ZN14CairoOutputDev19drawSoftMaskedImageEP8GfxStateP6ObjectP6StreamiiP16GfxImageColorMapbS5_iiS7_b
_ZN14CairoOutputDev19getFilterForSurfaceEP14_cairo_surfaceb
_ZN14CairoOutputDev19interpretType3CharsEv
_ZN14CairoOutputDev19patchMeshShadedFillEP8GfxStateP19GfxPatchMeshShading
_ZN14CairoOutputDev19setContextAntialiasEP6_cairo16_cairo_antialias
_ZN14CairoOutputDev19updateFillColorStopEP8GfxStated
_ZN14CairoOutputDev19updateStrokeOpacityEP8GfxState
_ZN14CairoOutputDev20drawImageMaskRegularEP8GfxStateP6ObjectP6Streamiibbb
_ZN14CairoOutputDev20endTransparencyGroupEP8GfxState
_ZN14CairoOutputDev20fillToStrokePathClipEP8GfxState
_ZN14CairoOutputDev20popTransparencyGroupEv
_ZN14CairoOutputDev20useTilingPatternFillEv
_ZN14CairoOutputDev22beginTransparencyGroupEP8GfxStatePdP13GfxColorSpacebbb
_ZN14CairoOutputDev22drawImageMaskPrescaledEP8GfxStateP6ObjectP6Streamiibbb
_ZN14CairoOutputDev22paintTransparencyGroupEP8GfxStatePd
_ZN14CairoOutputDev24axialShadedSupportExtendEP8GfxStateP15GfxAxialShading
_ZN14CairoOutputDev24setSoftMaskFromImageMaskEP8GfxStateP6ObjectP6StreamiibbPd
_ZN14CairoOutputDev25gouraudTriangleShadedFillEP8GfxStateP25GfxGouraudTriangleShading
_ZN14CairoOutputDev25radialShadedSupportExtendEP8GfxStateP16GfxRadialShading
_ZN14CairoOutputDev26setMimeDataForJBIG2GlobalsEP6StreamP14_cairo_surface
_ZN14CairoOutputDev26unsetSoftMaskFromImageMaskEP8GfxStatePd
_ZN14CairoOutputDev4clipEP8GfxState
_ZN14CairoOutputDev4fillEP8GfxState
_ZN14CairoOutputDev6doPathEP6_cairoP8GfxStateP7GfxPath
_ZN14CairoOutputDev6eoClipEP8GfxState
_ZN14CairoOutputDev6eoFillEP8GfxState
_ZN14CairoOutputDev6ft_libE DATA
_ZN14CairoOutputDev6strokeEP8GfxState
_ZN14CairoOutputDev7endPageEv
_ZN14CairoOutputDev7type3D0EP8GfxStatedd
_ZN14CairoOutputDev7type3D1EP8GfxStatedddddd
_ZN14CairoOutputDev8drawCharEP8GfxStateddddddjiPji
_ZN14CairoOutputDev8setCairoEP6_cairo
_ZN14CairoOutputDev8startDocEP6PDFDocP15CairoFontEngine
_ZN14CairoOutputDev9drawImageEP8GfxStateP6ObjectP6StreamiiP16GfxImageColorMapbPib
_ZN14CairoOutputDev9endStringEP8GfxState
_ZN14CairoOutputDev9saveStateEP8GfxState
_ZN14CairoOutputDev9startPageEiP8GfxStateP4XRef
_ZN14CairoOutputDev9updateAllEP8GfxState
_ZN14CairoOutputDev9updateCTMEP8GfxStatedddddd
_ZN14CairoOutputDevC1Ev
_ZN14CairoOutputDevC2Ev
_ZN14CairoOutputDevD0Ev
_ZN14CairoOutputDevD1Ev
_ZN14CairoOutputDevD2Ev
_ZN14CairoType3Font6createEP7GfxFontP6PDFDocP15CairoFontEnginebP4XRef
_ZN14CairoType3Font7matchesER3Refb
_ZN14CairoType3FontC1E3RefP6PDFDocP16_cairo_font_facePijbP4XRef
_ZN14CairoType3FontC2E3RefP6PDFDocP16_cairo_font_facePijbP4XRef
_ZN14CairoType3FontD0Ev
_ZN14CairoType3FontD1Ev
_ZN14CairoType3FontD2Ev
_ZN15CairoFontEngine7getFontEP7GfxFontP6PDFDocbP4XRef
_ZN15CairoFontEngineC1EP14FT_LibraryRec_
_ZN15CairoFontEngineC2EP14FT_LibraryRec_
_ZN15CairoFontEngineD1Ev
_ZN15CairoFontEngineD2Ev
_ZN15CairoRescaleBox14downScaleImageEjjiittttP14_cairo_surface
_ZN16RescaleDrawImage6getRowEiPj
_ZN16RescaleDrawImageD0Ev
_ZN16RescaleDrawImageD1Ev
_ZN17CairoFreeTypeFont6createEP7GfxFontP4XRefP14FT_LibraryRec_b
_ZN17CairoFreeTypeFontC1E3RefP16_cairo_font_facePijb
_ZN17CairoFreeTypeFontC2E3RefP16_cairo_font_facePijb
_ZN17CairoFreeTypeFontD0Ev
_ZN17CairoFreeTypeFontD1Ev
_ZN17CairoFreeTypeFontD2Ev
_ZN18PopplerInputStream11hasGetCharsEv
_ZN18PopplerInputStream13makeSubStreamExbxP6Object
_ZN18PopplerInputStream15unfilteredResetEv
_ZN18PopplerInputStream17getUnfilteredCharEv
_ZN18PopplerInputStream4copyEv
_ZN18PopplerInputStream5closeEv
_ZN18PopplerInputStream5resetEv
_ZN18PopplerInputStream6getPosEv
_ZN18PopplerInputStream6setPosExi
_ZN18PopplerInputStream7fillBufEv
_ZN18PopplerInputStream7getCharEv
_ZN18PopplerInputStream7getKindEv
_ZN18PopplerInputStream8getCharsEiPh
_ZN18PopplerInputStream8getStartEv
_ZN18PopplerInputStream8lookCharEv
_ZN18PopplerInputStream9moveStartEx
_ZN18PopplerInputStreamC1EP13_GInputStreamP13_GCancellablexbxP6Object
_ZN18PopplerInputStreamC2EP13_GInputStreamP13_GCancellablexbxP6Object
_ZN18PopplerInputStreamD0Ev
_ZN18PopplerInputStreamD1Ev
_ZN18PopplerInputStreamD2Ev
_ZN19CairoImageOutputDev10updateFontEP8GfxState
_ZN19CairoImageOutputDev10upsideDownEv
_ZN19CairoImageOutputDev11needNonTextEv
_ZN19CairoImageOutputDev11setSoftMaskEP8GfxStatePdbP8FunctionP8GfxColor
_ZN19CairoImageOutputDev11useDrawCharEv
_ZN19CairoImageOutputDev12restoreStateEP8GfxState
_ZN19CairoImageOutputDev13clearSoftMaskEP8GfxState
_ZN19CairoImageOutputDev13drawImageMaskEP8GfxStateP6ObjectP6Streamiibbb
_ZN19CairoImageOutputDev13setDefaultCTMEPd
_ZN19CairoImageOutputDev13updateLineCapEP8GfxState
_ZN19CairoImageOutputDev14updateFlatnessEP8GfxState
_ZN19CairoImageOutputDev14updateLineDashEP8GfxState
_ZN19CairoImageOutputDev14updateLineJoinEP8GfxState
_ZN19CairoImageOutputDev14useShadedFillsEi
_ZN19CairoImageOutputDev15axialShadedFillEP8GfxStateP15GfxAxialShadingdd
_ZN19CairoImageOutputDev15drawMaskedImageEP8GfxStateP6ObjectP6StreamiiP16GfxImageColorMapbS5_iibb
_ZN19CairoImageOutputDev15updateBlendModeEP8GfxState
_ZN19CairoImageOutputDev15updateFillColorEP8GfxState
_ZN19CairoImageOutputDev15updateLineWidthEP8GfxState
_ZN19CairoImageOutputDev16clipToStrokePathEP8GfxState
_ZN19CairoImageOutputDev16radialShadedFillEP8GfxStateP16GfxRadialShadingdd
_ZN19CairoImageOutputDev16updateMiterLimitEP8GfxState
_ZN19CairoImageOutputDev16useFillColorStopEv
_ZN19CairoImageOutputDev17tilingPatternFillEP8GfxStateP3GfxP7CatalogP6ObjectPdiiP4DictS8_S8_iiiidd
_ZN19CairoImageOutputDev17updateFillOpacityEP8GfxState
_ZN19CairoImageOutputDev17updateStrokeColorEP8GfxState
_ZN19CairoImageOutputDev19drawSoftMaskedImageEP8GfxStateP6ObjectP6StreamiiP16GfxImageColorMapbS5_iiS7_b
_ZN19CairoImageOutputDev19interpretType3CharsEv
_ZN19CairoImageOutputDev19updateStrokeOpacityEP8GfxState
_ZN19CairoImageOutputDev20endTransparencyGroupEP8GfxState
_ZN19CairoImageOutputDev20useTilingPatternFillEv
_ZN19CairoImageOutputDev22beginTransparencyGroupEP8GfxStatePdP13GfxColorSpacebbb
_ZN19CairoImageOutputDev22paintTransparencyGroupEP8GfxStatePd
_ZN19CairoImageOutputDev24setSoftMaskFromImageMaskEP8GfxStateP6ObjectP6StreamiibbPd
_ZN19CairoImageOutputDev26unsetSoftMaskFromImageMaskEP8GfxStatePd
_ZN19CairoImageOutputDev4clipEP8GfxState
_ZN19CairoImageOutputDev4fillEP8GfxState
_ZN19CairoImageOutputDev6eoClipEP8GfxState
_ZN19CairoImageOutputDev6eoFillEP8GfxState
_ZN19CairoImageOutputDev6strokeEP8GfxState
_ZN19CairoImageOutputDev7getBBoxEP8GfxStateiiPdS2_S2_S2_
_ZN19CairoImageOutputDev9drawImageEP8GfxStateP6ObjectP6StreamiiP16GfxImageColorMapbPib
_ZN19CairoImageOutputDev9saveImageEP10CairoImage
_ZN19CairoImageOutputDev9saveStateEP8GfxState
_ZN19CairoImageOutputDev9updateAllEP8GfxState
_ZN19CairoImageOutputDev9updateCTMEP8GfxStatedddddd
_ZN19CairoImageOutputDevC1Ev
_ZN19CairoImageOutputDevC2Ev
_ZN19CairoImageOutputDevD0Ev
_ZN19CairoImageOutputDevD1Ev
_ZN19CairoImageOutputDevD2Ev
_ZN23PopplerCachedFileLoader4initEP9GooStringP10CachedFile
_ZN23PopplerCachedFileLoader4loadERKSt6vectorI10_ByteRangeSaIS1_EEP16CachedFileWriter
_ZN23PopplerCachedFileLoaderC1EP13_GInputStreamP13_GCancellablex
_ZN23PopplerCachedFileLoaderC2EP13_GInputStreamP13_GCancellablex
_ZN23PopplerCachedFileLoaderD0Ev
_ZN23PopplerCachedFileLoaderD1Ev
_ZN23PopplerCachedFileLoaderD2Ev
_ZN6Stream13getNextStreamEv
_ZN6Stream14getImageParamsEPiP20StreamColorSpaceMode
_ZN6Stream9isEncoderEv
_ZN8LinkGoTo4isOkEv
_ZN9CairoFont11getFontFaceEv
_ZN9CairoFont25getSubstitutionCorrectionEP7GfxFont
_ZN9CairoFont7matchesER3Refb
_ZN9CairoFont8getGlyphEjPji
_ZN9CairoFontC1E3RefP16_cairo_font_facePijbb
_ZN9CairoFontC2E3RefP16_cairo_font_facePijbb
_ZN9CairoFontD0Ev
_ZN9CairoFontD1Ev
_ZN9CairoFontD2Ev
_ZN9LinkGoToR4isOkEv
_ZN9OutputDev10drawStringEP8GfxStateP9GooString
_ZN9OutputDev10updateRiseEP8GfxState
_ZN9OutputDev11endStringOpEP8GfxState
_ZN9OutputDev11needNonTextEv
_ZN9OutputDev11processLinkEP9AnnotLink
_ZN9OutputDev11saveTextPosEP8GfxState
_ZN9OutputDev11useDrawFormEv
_ZN9OutputDev12incCharCountEi
_ZN9OutputDev12updateRenderEP8GfxState
_ZN9OutputDev13beginStringOpEP8GfxState
_ZN9OutputDev13needCharCountEv
_ZN9OutputDev13updateTextMatEP8GfxState
_ZN9OutputDev13updateTextPosEP8GfxState
_ZN9OutputDev14checkPageSliceEP4PageddibbiiiibPFbPvES2_PFbP5AnnotS2_ES2_
_ZN9OutputDev14getProfileHashEv
_ZN9OutputDev14restoreTextPosEP8GfxState
_ZN9OutputDev14updateTransferEP8GfxState
_ZN9OutputDev15updateCharSpaceEP8GfxState
_ZN9OutputDev15updateTextShiftEP8GfxStated
_ZN9OutputDev15updateWordSpaceEP8GfxState
_ZN9OutputDev18getVectorAntialiasEv
_ZN9OutputDev18setVectorAntialiasEb
_ZN9OutputDev18updateAlphaIsShapeEP8GfxState
_ZN9OutputDev18updateHorizScalingEP8GfxState
_ZN9OutputDev18updateStrokeAdjustEP8GfxState
_ZN9OutputDev18updateTextKnockoutEP8GfxState
_ZN9OutputDev19clearPatternOpacityEP8GfxState
_ZN9OutputDev19updateFillOverprintEP8GfxState
_ZN9OutputDev19updateOverprintModeEP8GfxState
_ZN9OutputDev20updateFillColorSpaceEP8GfxState
_ZN9OutputDev20updatePatternOpacityEP8GfxState
_ZN9OutputDev21updateStrokeOverprintEP8GfxState
_ZN9OutputDev22checkTransparencyGroupEP8GfxStateb
_ZN9OutputDev22updateStrokeColorSpaceEP8GfxState
_ZN9OutputDev4dumpEv
_ZN9OutputDev8drawFormE3Ref
_ZN9OutputDev9psXObjectEP6StreamS1_
_ZNK13StructElement12getTextSpansEv
_ZNSt6vectorIiSaIiEE13_M_insert_auxEN9__gnu_cxx17__normal_iteratorIPiS1_EERKi
_ZTI10BaseStream DATA
_ZTI10LinkAction DATA
_ZTI10LinkLaunch DATA
_ZTI12LinkOCGState DATA
_ZTI13LinkRendition DATA
_ZTI14CairoOutputDev DATA
_ZTI14CairoType3Font DATA
_ZTI14LinkJavaScript DATA
_ZTI15CairoRescaleBox DATA
_ZTI16CachedFileLoader DATA
_ZTI16RescaleDrawImage DATA
_ZTI17CairoFreeTypeFont DATA
_ZTI18PopplerInputStream DATA
_ZTI19CairoImageOutputDev DATA
_ZTI23PopplerCachedFileLoader DATA
_ZTI6Stream DATA
_ZTI7LinkURI DATA
_ZTI8LinkGoTo DATA
_ZTI9CairoFont DATA
_ZTI9LinkGoToR DATA
_ZTI9LinkMovie DATA
_ZTI9LinkNamed DATA
_ZTI9OutputDev DATA
_ZTS10BaseStream DATA
_ZTS10LinkAction DATA
_ZTS10LinkLaunch DATA
_ZTS12LinkOCGState DATA
_ZTS13LinkRendition DATA
_ZTS14CairoOutputDev DATA
_ZTS14CairoType3Font DATA
_ZTS14LinkJavaScript DATA
_ZTS15CairoRescaleBox DATA
_ZTS16CachedFileLoader DATA
_ZTS16RescaleDrawImage DATA
_ZTS17CairoFreeTypeFont DATA
_ZTS18PopplerInputStream DATA
_ZTS19CairoImageOutputDev DATA
_ZTS23PopplerCachedFileLoader DATA
_ZTS6Stream DATA
_ZTS7LinkURI DATA
_ZTS8LinkGoTo DATA
_ZTS9CairoFont DATA
_ZTS9LinkGoToR DATA
_ZTS9LinkMovie DATA
_ZTS9LinkNamed DATA
_ZTS9OutputDev DATA
_ZTV14CairoOutputDev DATA
_ZTV14CairoType3Font DATA
_ZTV15CairoRescaleBox DATA
_ZTV16RescaleDrawImage DATA
_ZTV17CairoFreeTypeFont DATA
_ZTV18PopplerInputStream DATA
_ZTV19CairoImageOutputDev DATA
_ZTV23PopplerCachedFileLoader DATA
_ZTV9CairoFont DATA
poppler_action_copy
poppler_action_free
poppler_action_get_type
poppler_action_layer_action_get_type
poppler_action_movie_operation_get_type
poppler_action_type_get_type
poppler_annot_callout_line_copy
poppler_annot_callout_line_free
poppler_annot_callout_line_get_type
poppler_annot_callout_line_new
poppler_annot_circle_get_interior_color
poppler_annot_circle_get_type
poppler_annot_circle_new
poppler_annot_circle_set_interior_color
poppler_annot_external_data_type_get_type
poppler_annot_file_attachment_get_attachment
poppler_annot_file_attachment_get_name
poppler_annot_file_attachment_get_type
poppler_annot_flag_get_type
poppler_annot_free_text_get_callout_line
poppler_annot_free_text_get_quadding
poppler_annot_free_text_get_type
poppler_annot_free_text_quadding_get_type
poppler_annot_get_annot_type
poppler_annot_get_color
poppler_annot_get_contents
poppler_annot_get_flags
poppler_annot_get_modified
poppler_annot_get_name
poppler_annot_get_page_index
poppler_annot_get_rectangle
poppler_annot_get_type
poppler_annot_line_get_type
poppler_annot_line_new
poppler_annot_line_set_vertices
poppler_annot_mapping_copy
poppler_annot_mapping_free
poppler_annot_mapping_get_type
poppler_annot_mapping_new
poppler_annot_markup_get_date
poppler_annot_markup_get_external_data
poppler_annot_markup_get_label
poppler_annot_markup_get_opacity
poppler_annot_markup_get_popup_is_open
poppler_annot_markup_get_popup_rectangle
poppler_annot_markup_get_reply_to
poppler_annot_markup_get_subject
poppler_annot_markup_get_type
poppler_annot_markup_has_popup
poppler_annot_markup_reply_type_get_type
poppler_annot_markup_set_label
poppler_annot_markup_set_opacity
poppler_annot_markup_set_popup
poppler_annot_markup_set_popup_is_open
poppler_annot_markup_set_popup_rectangle
poppler_annot_movie_get_movie
poppler_annot_movie_get_title
poppler_annot_movie_get_type
poppler_annot_screen_get_action
poppler_annot_screen_get_type
poppler_annot_set_color
poppler_annot_set_contents
poppler_annot_set_flags
poppler_annot_set_rectangle
poppler_annot_square_get_interior_color
poppler_annot_square_get_type
poppler_annot_square_new
poppler_annot_square_set_interior_color
poppler_annot_text_get_icon
poppler_annot_text_get_is_open
poppler_annot_text_get_state
poppler_annot_text_get_type
poppler_annot_text_markup_get_quadrilaterals
poppler_annot_text_markup_get_type
poppler_annot_text_markup_new_highlight
poppler_annot_text_markup_new_squiggly
poppler_annot_text_markup_new_strikeout
poppler_annot_text_markup_new_underline
poppler_annot_text_markup_set_quadrilaterals
poppler_annot_text_new
poppler_annot_text_set_icon
poppler_annot_text_set_is_open
poppler_annot_text_state_get_type
poppler_annot_type_get_type
poppler_attachment_get_type
poppler_attachment_save
poppler_attachment_save_to_callback
poppler_backend_get_type
poppler_color_copy
poppler_color_free
poppler_color_get_type
poppler_color_new
poppler_date_parse
poppler_dest_copy
poppler_dest_free
poppler_dest_get_type
poppler_dest_type_get_type
poppler_document_find_dest
poppler_document_get_attachments
poppler_document_get_author
poppler_document_get_creation_date
poppler_document_get_creator
poppler_document_get_form_field
poppler_document_get_id
poppler_document_get_keywords
poppler_document_get_metadata
poppler_document_get_modification_date
poppler_document_get_n_attachments
poppler_document_get_n_pages
poppler_document_get_page
poppler_document_get_page_by_label
poppler_document_get_page_layout
poppler_document_get_page_mode
poppler_document_get_pdf_version
poppler_document_get_pdf_version_string
poppler_document_get_permissions
poppler_document_get_producer
poppler_document_get_subject
poppler_document_get_title
poppler_document_get_type
poppler_document_has_attachments
poppler_document_is_linearized
poppler_document_new_from_data
poppler_document_new_from_file
poppler_document_new_from_gfile
poppler_document_new_from_stream
poppler_document_save
poppler_document_save_a_copy
poppler_document_set_author
poppler_document_set_creation_date
poppler_document_set_creator
poppler_document_set_keywords
poppler_document_set_modification_date
poppler_document_set_producer
poppler_document_set_subject
poppler_document_set_title
poppler_error_get_type
poppler_error_quark
poppler_find_flags_get_type
poppler_font_info_free
poppler_font_info_get_type
poppler_font_info_new
poppler_font_info_scan
poppler_font_type_get_type
poppler_fonts_iter_copy
poppler_fonts_iter_free
poppler_fonts_iter_get_encoding
poppler_fonts_iter_get_file_name
poppler_fonts_iter_get_font_type
poppler_fonts_iter_get_full_name
poppler_fonts_iter_get_name
poppler_fonts_iter_get_substitute_name
poppler_fonts_iter_get_type
poppler_fonts_iter_is_embedded
poppler_fonts_iter_is_subset
poppler_fonts_iter_next
poppler_form_button_type_get_type
poppler_form_choice_type_get_type
poppler_form_field_button_get_button_type
poppler_form_field_button_get_state
poppler_form_field_button_set_state
poppler_form_field_choice_can_select_multiple
poppler_form_field_choice_commit_on_change
poppler_form_field_choice_do_spell_check
poppler_form_field_choice_get_choice_type
poppler_form_field_choice_get_item
poppler_form_field_choice_get_n_items
poppler_form_field_choice_get_text
poppler_form_field_choice_is_editable
poppler_form_field_choice_is_item_selected
poppler_form_field_choice_select_item
poppler_form_field_choice_set_text
poppler_form_field_choice_toggle_item
poppler_form_field_choice_unselect_all
poppler_form_field_get_action
poppler_form_field_get_field_type
poppler_form_field_get_font_size
poppler_form_field_get_id
poppler_form_field_get_mapping_name
poppler_form_field_get_name
poppler_form_field_get_partial_name
poppler_form_field_get_type
poppler_form_field_is_read_only
poppler_form_field_mapping_copy
poppler_form_field_mapping_free
poppler_form_field_mapping_get_type
poppler_form_field_mapping_new
poppler_form_field_text_do_scroll
poppler_form_field_text_do_spell_check
poppler_form_field_text_get_max_len
poppler_form_field_text_get_text
poppler_form_field_text_get_text_type
poppler_form_field_text_is_password
poppler_form_field_text_is_rich_text
poppler_form_field_text_set_text
poppler_form_field_type_get_type
poppler_form_text_type_get_type
poppler_get_backend
poppler_get_version
poppler_image_mapping_copy
poppler_image_mapping_free
poppler_image_mapping_get_type
poppler_image_mapping_new
poppler_index_iter_copy
poppler_index_iter_free
poppler_index_iter_get_action
poppler_index_iter_get_child
poppler_index_iter_get_type
poppler_index_iter_is_open
poppler_index_iter_new
poppler_index_iter_next
poppler_layer_get_radio_button_group_id
poppler_layer_get_title
poppler_layer_get_type
poppler_layer_hide
poppler_layer_is_parent
poppler_layer_is_visible
poppler_layer_show
poppler_layers_iter_copy
poppler_layers_iter_free
poppler_layers_iter_get_child
poppler_layers_iter_get_layer
poppler_layers_iter_get_title
poppler_layers_iter_get_type
poppler_layers_iter_new
poppler_layers_iter_next
poppler_link_mapping_copy
poppler_link_mapping_free
poppler_link_mapping_get_type
poppler_link_mapping_new
poppler_media_get_filename
poppler_media_get_mime_type
poppler_media_get_type
poppler_media_is_embedded
poppler_media_save
poppler_media_save_to_callback
poppler_movie_get_filename
poppler_movie_get_type
poppler_movie_need_poster
poppler_movie_show_controls
poppler_page_add_annot
poppler_page_find_text
poppler_page_find_text_with_options
poppler_page_free_annot_mapping
poppler_page_free_form_field_mapping
poppler_page_free_image_mapping
poppler_page_free_link_mapping
poppler_page_free_text_attributes
poppler_page_get_annot_mapping
poppler_page_get_crop_box
poppler_page_get_duration
poppler_page_get_form_field_mapping
poppler_page_get_image
poppler_page_get_image_mapping
poppler_page_get_index
poppler_page_get_label
poppler_page_get_link_mapping
poppler_page_get_selected_region
poppler_page_get_selected_text
poppler_page_get_selection_region
poppler_page_get_size
poppler_page_get_text
poppler_page_get_text_attributes
poppler_page_get_text_attributes_for_area
poppler_page_get_text_for_area
poppler_page_get_text_layout
poppler_page_get_text_layout_for_area
poppler_page_get_thumbnail
poppler_page_get_thumbnail_size
poppler_page_get_transition
poppler_page_get_type
poppler_page_layout_get_type
poppler_page_mode_get_type
poppler_page_remove_annot
poppler_page_render
poppler_page_render_for_printing
poppler_page_render_for_printing_with_options
poppler_page_render_selection
poppler_page_render_to_ps
poppler_page_selection_region_free
poppler_page_transition_alignment_get_type
poppler_page_transition_copy
poppler_page_transition_direction_get_type
poppler_page_transition_free
poppler_page_transition_get_type
poppler_page_transition_new
poppler_page_transition_type_get_type
poppler_permissions_get_type
poppler_point_copy
poppler_point_free
poppler_point_get_type
poppler_point_new
poppler_print_flags_get_type
poppler_ps_file_free
poppler_ps_file_get_type
poppler_ps_file_new
poppler_ps_file_set_duplex
poppler_ps_file_set_paper_size
poppler_quadrilateral_copy
poppler_quadrilateral_free
poppler_quadrilateral_get_type
poppler_quadrilateral_new
poppler_rectangle_copy
poppler_rectangle_free
poppler_rectangle_get_type
poppler_rectangle_new
poppler_selection_style_get_type
poppler_structure_block_align_get_type
poppler_structure_border_style_get_type
poppler_structure_element_get_abbreviation
poppler_structure_element_get_actual_text
poppler_structure_element_get_alt_text
poppler_structure_element_get_background_color
poppler_structure_element_get_baseline_shift
poppler_structure_element_get_block_align
poppler_structure_element_get_border_color
poppler_structure_element_get_border_style
poppler_structure_element_get_border_thickness
poppler_structure_element_get_bounding_box
poppler_structure_element_get_color
poppler_structure_element_get_column_count
poppler_structure_element_get_column_gaps
poppler_structure_element_get_column_widths
poppler_structure_element_get_end_indent
poppler_structure_element_get_form_description
poppler_structure_element_get_form_role
poppler_structure_element_get_form_state
poppler_structure_element_get_glyph_orientation
poppler_structure_element_get_height
poppler_structure_element_get_id
poppler_structure_element_get_inline_align
poppler_structure_element_get_kind
poppler_structure_element_get_language
poppler_structure_element_get_line_height
poppler_structure_element_get_list_numbering
poppler_structure_element_get_padding
poppler_structure_element_get_page
poppler_structure_element_get_placement
poppler_structure_element_get_ruby_align
poppler_structure_element_get_ruby_position
poppler_structure_element_get_space_after
poppler_structure_element_get_space_before
poppler_structure_element_get_start_indent
poppler_structure_element_get_table_border_style
poppler_structure_element_get_table_column_span
poppler_structure_element_get_table_headers
poppler_structure_element_get_table_padding
poppler_structure_element_get_table_row_span
poppler_structure_element_get_table_scope
poppler_structure_element_get_table_summary
poppler_structure_element_get_text
poppler_structure_element_get_text_align
poppler_structure_element_get_text_decoration_color
poppler_structure_element_get_text_decoration_thickness
poppler_structure_element_get_text_decoration_type
poppler_structure_element_get_text_indent
poppler_structure_element_get_text_spans
poppler_structure_element_get_title
poppler_structure_element_get_type
poppler_structure_element_get_width
poppler_structure_element_get_writing_mode
poppler_structure_element_is_block
poppler_structure_element_is_content
poppler_structure_element_is_grouping
poppler_structure_element_is_inline
poppler_structure_element_iter_copy
poppler_structure_element_iter_free
poppler_structure_element_iter_get_child
poppler_structure_element_iter_get_element
poppler_structure_element_iter_get_type
poppler_structure_element_iter_new
poppler_structure_element_iter_next
poppler_structure_element_kind_get_type
poppler_structure_form_role_get_type
poppler_structure_form_state_get_type
poppler_structure_get_text_flags_get_type
poppler_structure_glyph_orientation_get_type
poppler_structure_inline_align_get_type
poppler_structure_list_numbering_get_type
poppler_structure_placement_get_type
poppler_structure_ruby_align_get_type
poppler_structure_ruby_position_get_type
poppler_structure_table_scope_get_type
poppler_structure_text_align_get_type
poppler_structure_text_decoration_get_type
poppler_structure_writing_mode_get_type
poppler_text_attributes_copy
poppler_text_attributes_free
poppler_text_attributes_get_type
poppler_text_attributes_new
poppler_text_span_copy
poppler_text_span_free
poppler_text_span_get_color
poppler_text_span_get_font_name
poppler_text_span_get_text
poppler_text_span_get_type
poppler_text_span_is_bold_font
poppler_text_span_is_fixed_width_font
poppler_text_span_is_serif_font
poppler_viewer_preferences_get_type
