;
; Definition file of libvipsCC-42.dll
; Automatic generated by gendef
; written by Kai Tietz 2008
;
LIBRARY "libvipsCC-42.dll"
EXPORTS
_ZN4vips15_private_detail7VPDMask5embedEP14im__DOUBLEMASK
_ZN4vips15_private_detail7VPDMaskC1EP14im__DOUBLEMASK
_ZN4vips15_private_detail7VPDMaskC1EPKc
_ZN4vips15_private_detail7VPDMaskC1Eii
_ZN4vips15_private_detail7VPDMaskC1EiiddSt6vectorIdSaIdEE
_ZN4vips15_private_detail7VPDMaskC1Ev
_ZN4vips15_private_detail7VPDMaskC2EP14im__DOUBLEMASK
_ZN4vips15_private_detail7VPDMaskC2EPKc
_ZN4vips15_private_detail7VPDMaskC2Eii
_ZN4vips15_private_detail7VPDMaskC2EiiddSt6vectorIdSaIdEE
_ZN4vips15_private_detail7VPDMaskC2Ev
_ZN4vips15_private_detail7VPDMaskD0Ev
_ZN4vips15_private_detail7VPDMaskD1Ev
_ZN4vips15_private_detail7VPDMaskD2Ev
_ZN4vips15_private_detail7VPIMask5embedEP11im__INTMASK
_ZN4vips15_private_detail7VPIMaskC1EP11im__INTMASK
_ZN4vips15_private_detail7VPIMaskC1EPKc
_ZN4vips15_private_detail7VPIMaskC1Eii
_ZN4vips15_private_detail7VPIMaskC1EiiiiSt6vectorIiSaIiEE
_ZN4vips15_private_detail7VPIMaskC1Ev
_ZN4vips15_private_detail7VPIMaskC2EP11im__INTMASK
_ZN4vips15_private_detail7VPIMaskC2EPKc
_ZN4vips15_private_detail7VPIMaskC2Eii
_ZN4vips15_private_detail7VPIMaskC2EiiiiSt6vectorIiSaIiEE
_ZN4vips15_private_detail7VPIMaskC2Ev
_ZN4vips15_private_detail7VPIMaskD0Ev
_ZN4vips15_private_detail7VPIMaskD1Ev
_ZN4vips15_private_detail7VPIMaskD2Ev
_ZN4vips15thread_shutdownEv
_ZN4vips17im__ccp_print_allEv
_ZN4vips4initEPKc
_ZN4vips5VMask12make_privateEv
_ZN4vips5VMask8refblockD0Ev
_ZN4vips5VMask8refblockD1Ev
_ZN4vips5VMaskD0Ev
_ZN4vips5VMaskD1Ev
_ZN4vips5VMaskD2Ev
_ZN4vips5VMaskaSERKS0_
_ZN4vips5Vargv4callEv
_ZN4vips5VargvC1EPKc
_ZN4vips5VargvC2EPKc
_ZN4vips5VargvD1Ev
_ZN4vips5VargvD2Ev
_ZN4vips6VDMask3catES0_
_ZN4vips6VDMask3invEv
_ZN4vips6VDMask3logEdd
_ZN4vips6VDMask3mulES0_
_ZN4vips6VDMask3trnEv
_ZN4vips6VDMask5embedEP14im__DOUBLEMASK
_ZN4vips6VDMask5gaussEdd
_ZN4vips6VDMask6scaleiEv
_ZN4vips6VDMask8rotate45Ev
_ZN4vips6VDMask8rotate90Ev
_ZN4vips6VDMaskD0Ev
_ZN4vips6VDMaskD1Ev
_ZN4vips6VDMaskcvNS_6VIMaskEEv
_ZN4vips6VDMaskcvNS_6VImageEEv
_ZN4vips6VDMaskixEi
_ZN4vips6VError3appENSt7__cxx1112basic_stringIcSt11char_traitsIcESaIcEEE
_ZN4vips6VError3appEi
_ZN4vips6VError6perrorEPKc
_ZN4vips6VError6perrorEv
_ZN4vips6VErrorD0Ev
_ZN4vips6VErrorD1Ev
_ZN4vips6VIMask3catENS_6VDMaskE
_ZN4vips6VIMask3invEv
_ZN4vips6VIMask3logEdd
_ZN4vips6VIMask3mulENS_6VDMaskE
_ZN4vips6VIMask3trnEv
_ZN4vips6VIMask5embedEP11im__INTMASK
_ZN4vips6VIMask5gaussEdd
_ZN4vips6VIMask8rotate45Ev
_ZN4vips6VIMask8rotate90Ev
_ZN4vips6VIMask9gauss_sepEdd
_ZN4vips6VIMaskD0Ev
_ZN4vips6VIMaskD1Ev
_ZN4vips6VIMaskcvNS_6VDMaskEEv
_ZN4vips6VIMaskcvNS_6VImageEEv
_ZN4vips6VIMaskixEi
_ZN4vips6VImage10benchmark2Ev
_ZN4vips6VImage10benchmarknEi
_ZN4vips6VImage10copy_morphEiii
_ZN4vips6VImage10dE_fromLabES0_
_ZN4vips6VImage10dE_fromXYZES0_
_ZN4vips6VImage10dilate_rawENS_6VIMaskE
_ZN4vips6VImage10draw_floodEiiSt6vectorIdSaIdEE
_ZN4vips6VImage10draw_imageES0_ii
_ZN4vips6VImage10draw_pointEiiSt6vectorIdSaIdEE
_ZN4vips6VImage10flood_copyEiiSt6vectorIdSaIdEE
_ZN4vips6VImage10gaussnoiseEiidd
_ZN4vips6VImage10greyc_maskES0_iddddddddii
_ZN4vips6VImage10header_intEPc
_ZN4vips6VImage10icc_exportEPci
_ZN4vips6VImage10icc_importEPci
_ZN4vips6VImage10ifthenelseES0_S0_
_ZN4vips6VImage10maxpos_avgERdS1_
_ZN4vips6VImage10rank_imageESt6vectorIS0_SaIS0_EEi
_ZN4vips6VImage10shiftrightESt6vectorIdSaIdEE
_ZN4vips6VImage10shiftrightEi
_ZN4vips6VImage10similarityEdddd
_ZN4vips6VImage10tone_buildEdddddddd
_ZN4vips6VImage10video_testEii
_ZN4vips6VImage10video_v4l1EPciiiiii
_ZN4vips6VImage11CompressionEv
_ZN4vips6VImage11affinei_allEPcdddddd
_ZN4vips6VImage11align_bandsEv
_ZN4vips6VImage11convsep_rawENS_6VIMaskE
_ZN4vips6VImage11cross_phaseES0_
_ZN4vips6VImage11dE_fromdispES0_NS_8VDisplayE
_ZN4vips6VImage11debug_printEv
_ZN4vips6VImage11draw_circleEiiiiSt6vectorIdSaIdEE
_ZN4vips6VImage11draw_smudgeEiiii
_ZN4vips6VImage11falsecolourEv
_ZN4vips6VImage11fastcor_rawES0_
_ZN4vips6VImage11gradcor_rawES0_
_ZN4vips6VImage11history_getEv
_ZN4vips6VImage11insertplaceES0_St6vectorIiSaIiEES3_
_ZN4vips6VImage11insertplaceES0_ii
_ZN4vips6VImage11ismonotonicEv
_ZN4vips6VImage11lhisteq_rawEii
_ZN4vips6VImage11magick2vipsEPc
_ZN4vips6VImage11meta_removeEPKc
_ZN4vips6VImage12Lab2XYZ_tempEddd
_ZN4vips6VImage12XYZ2Lab_tempEddd
_ZN4vips6VImage12analyze2vipsEPc
_ZN4vips6VImage12convert2discEPKcS2_S2_
_ZN4vips6VImage12convsepf_rawENS_6VDMaskE
_ZN4vips6VImage12create_fmaskEiiiddddd
_ZN4vips6VImage12dE00_fromLabES0_
_ZN4vips6VImage12extract_areaEiiii
_ZN4vips6VImage12extract_bandEi
_ZN4vips6VImage12gammacorrectEd
_ZN4vips6VImage12hist_indexedES0_
_ZN4vips6VImage12hough_circleEiii
_ZN4vips6VImage12match_linearES0_iiiiiiii
_ZN4vips6VImage12meta_get_intEPKc
_ZN4vips6VImage12phasecor_fftES0_
_ZN4vips6VImage12system_imageEPcS1_S1_RS1_
_ZN4vips6VImage12tone_analyseEdddddd
_ZN4vips6VImage13dECMC_fromLabES0_
_ZN4vips6VImage13extract_bandsEii
_ZN4vips6VImage13header_doubleEPc
_ZN4vips6VImage13header_stringEPc
_ZN4vips6VImage13icc_transformEPcS1_i
_ZN4vips6VImage13label_regionsERi
_ZN4vips6VImage13maxpos_subpelERd
_ZN4vips6VImage13meta_get_areaEPKc
_ZN4vips6VImage13meta_get_blobEPKcPy
_ZN4vips6VImage13resize_linearEii
_ZN4vips6VImage13vips2mimejpegEi
_ZN4vips6VImage14dECMC_fromdispES0_NS_8VDisplayE
_ZN4vips6VImage14flt_image_freqEiddddd
_ZN4vips6VImage14global_balanceEd
_ZN4vips6VImage14point_bilinearEddi
_ZN4vips6VImage15_find_lroverlapES0_iiiiiiiRiRdS2_S2_S2_
_ZN4vips6VImage15_find_tboverlapES0_iiiiiiiRiRdS2_S2_S2_
_ZN4vips6VImage15draw_flood_blobEiiSt6vectorIdSaIdEE
_ZN4vips6VImage15flood_blob_copyEiiSt6vectorIdSaIdEE
_ZN4vips6VImage15global_balancefEd
_ZN4vips6VImage15identity_ushortEii
_ZN4vips6VImage15insert_noexpandES0_ii
_ZN4vips6VImage15meta_get_doubleEPKc
_ZN4vips6VImage15meta_get_stringEPKc
_ZN4vips6VImage15meta_get_typeofEPKc
_ZN4vips6VImage15rightshift_sizeEiii
_ZN4vips6VImage15similarity_areaEddddiiii
_ZN4vips6VImage16contrast_surfaceEii
_ZN4vips6VImage16draw_flood_otherES0_iii
_ZN4vips6VImage16flood_other_copyES0_iii
_ZN4vips6VImage16icc_export_depthEiPci
_ZN4vips6VImage16tone_build_rangeEiidddddddd
_ZN4vips6VImage17extract_areabandsEiiiiii
_ZN4vips6VImage17header_get_typeofEPc
_ZN4vips6VImage19icc_import_embeddedEi
_ZN4vips6VImage19match_linear_searchES0_iiiiiiiiii
_ZN4vips6VImage20contrast_surface_rawEii
_ZN4vips6VImage3absEv
_ZN4vips6VImage3addES0_
_ZN4vips6VImage3avgEv
_ZN4vips6VImage3cosEv
_ZN4vips6VImage3expEv
_ZN4vips6VImage3eyeEiid
_ZN4vips6VImage3heqEi
_ZN4vips6VImage3hspES0_
_ZN4vips6VImage3linESt6vectorIdSaIdEES3_
_ZN4vips6VImage3linEdd
_ZN4vips6VImage3logEv
_ZN4vips6VImage3maxEv
_ZN4vips6VImage3minEv
_ZN4vips6VImage3msbEv
_ZN4vips6VImage3powESt6vectorIdSaIdEE
_ZN4vips6VImage3powEd
_ZN4vips6VImage3sinEv
_ZN4vips6VImage3tanEv
_ZN4vips6VImage4HistEv
_ZN4vips6VImage4TypeEv
_ZN4vips6VImage4XresEv
_ZN4vips6VImage4YresEv
_ZN4vips6VImage4acosEv
_ZN4vips6VImage4asinEv
_ZN4vips6VImage4atanEv
_ZN4vips6VImage4c2psEv
_ZN4vips6VImage4ceilEv
_ZN4vips6VImage4clipEv
_ZN4vips6VImage4convENS_6VDMaskE
_ZN4vips6VImage4convENS_6VIMaskE
_ZN4vips6VImage4copyEv
_ZN4vips6VImage4expnESt6vectorIdSaIdEE
_ZN4vips6VImage4expnEd
_ZN4vips6VImage4fav4ES0_S0_S0_
_ZN4vips6VImage4feyeEiid
_ZN4vips6VImage4gaddEddS0_d
_ZN4vips6VImage4greyEii
_ZN4vips6VImage4gridEiii
_ZN4vips6VImage4histEi
_ZN4vips6VImage4lessES0_
_ZN4vips6VImage4lessESt6vectorIdSaIdEE
_ZN4vips6VImage4lessEd
_ZN4vips6VImage4lineES0_S0_St6vectorIiSaIiEES3_S3_S3_
_ZN4vips6VImage4lineEiiiii
_ZN4vips6VImage4moreES0_
_ZN4vips6VImage4moreESt6vectorIdSaIdEE
_ZN4vips6VImage4moreEd
_ZN4vips6VImage4rankEiii
_ZN4vips6VImage4ri2cES0_
_ZN4vips6VImage4rintEv
_ZN4vips6VImage4signEv
_ZN4vips6VImage4textEPcS1_iii
_ZN4vips6VImage4wrapEii
_ZN4vips6VImage4zoneEi
_ZN4vips6VImage4zoomEii
_ZN4vips6VImage5BandsEv
_ZN4vips6VImage5LevelEv
_ZN4vips6VImage5XsizeEv
_ZN4vips6VImage5YsizeEv
_ZN4vips6VImage5aconvENS_6VDMaskEii
_ZN4vips6VImage5blackEiii
_ZN4vips6VImage5blendES0_S0_
_ZN4vips6VImage5cacheEiii
_ZN4vips6VImage5convfENS_6VDMaskE
_ZN4vips6VImage5embedEiiiii
_ZN4vips6VImage5equalES0_
_ZN4vips6VImage5equalESt6vectorIdSaIdEE
_ZN4vips6VImage5equalEd
_ZN4vips6VImage5erodeENS_6VIMaskE
_ZN4vips6VImage5exp10Ev
_ZN4vips6VImage5fgreyEii
_ZN4vips6VImage5floorEv
_ZN4vips6VImage5fwfftEv
_ZN4vips6VImage5fzoneEi
_ZN4vips6VImage5greycEiddddddddii
_ZN4vips6VImage5log10Ev
_ZN4vips6VImage5pointEPcddi
_ZN4vips6VImage5rot90Ev
_ZN4vips6VImage5scaleEv
_ZN4vips6VImage5sinesEiidd
_ZN4vips6VImage5sliceEdd
_ZN4vips6VImage5spcorES0_
_ZN4vips6VImage5statsEv
_ZN4vips6VImage5stdifEddddii
_ZN4vips6VImage5writeEPKc
_ZN4vips6VImage5writeES0_
_ZN4vips6VImage5writeEv
_ZN4vips6VImage5zeroxEi
_ZN4vips6VImage6CodingEv
_ZN4vips6VImage6LengthEv
_ZN4vips6VImage6affineEddddddiiii
_ZN4vips6VImage6c2amphEv
_ZN4vips6VImage6c2imagEv
_ZN4vips6VImage6c2realEv
_ZN4vips6VImage6c2rectEv
_ZN4vips6VImage6circleEiiii
_ZN4vips6VImage6clip2cEv
_ZN4vips6VImage6clip2dEv
_ZN4vips6VImage6clip2fEv
_ZN4vips6VImage6clip2iEv
_ZN4vips6VImage6clip2sEv
_ZN4vips6VImage6correlES0_iiiiiiRiS1_
_ZN4vips6VImage6dilateENS_6VIMaskE
_ZN4vips6VImage6divideES0_
_ZN4vips6VImage6getextEv
_ZN4vips6VImage6grad_xEv
_ZN4vips6VImage6grad_yEv
_ZN4vips6VImage6histeqEv
_ZN4vips6VImage6histgrEi
_ZN4vips6VImage6histnDEi
_ZN4vips6VImage6insertES0_St6vectorIiSaIiEES3_
_ZN4vips6VImage6insertES0_ii
_ZN4vips6VImage6invertEv
_ZN4vips6VImage6invfftEv
_ZN4vips6VImage6lesseqES0_
_ZN4vips6VImage6lesseqESt6vectorIdSaIdEE
_ZN4vips6VImage6lesseqEd
_ZN4vips6VImage6linregESt6vectorIS0_SaIS0_EES1_IdSaIdEE
_ZN4vips6VImage6lrjoinES0_
_ZN4vips6VImage6maplutES0_
_ZN4vips6VImage6maxposEv
_ZN4vips6VImage6minposEv
_ZN4vips6VImage6moreeqES0_
_ZN4vips6VImage6moreeqESt6vectorIdSaIdEE
_ZN4vips6VImage6moreeqEd
_ZN4vips6VImage6recombENS_6VDMaskE
_ZN4vips6VImage6rot180Ev
_ZN4vips6VImage6rot270Ev
_ZN4vips6VImage6shrinkEdd
_ZN4vips6VImage6systemEPc
_ZN4vips6VImage6tbjoinES0_
_ZN4vips6VImage6threshEd
_ZN4vips6VImage7BandFmtEv
_ZN4vips6VImage7LCh2LabEv
_ZN4vips6VImage7LCh2UCSEv
_ZN4vips6VImage7Lab2LChEv
_ZN4vips6VImage7Lab2UCSEv
_ZN4vips6VImage7Lab2XYZEv
_ZN4vips6VImage7UCS2LChEv
_ZN4vips6VImage7UCS2LabEv
_ZN4vips6VImage7UCS2XYZEv
_ZN4vips6VImage7XYZ2LabEv
_ZN4vips6VImage7XYZ2UCSEv
_ZN4vips6VImage7XYZ2YxyEv
_ZN4vips6VImage7XoffsetEv
_ZN4vips6VImage7YoffsetEv
_ZN4vips6VImage7Yxy2XYZEv
_ZN4vips6VImage7affineiEPcddddddiiii
_ZN4vips6VImage7binfileEPciiii
_ZN4vips6VImage7clip2cmEv
_ZN4vips6VImage7clip2uiEv
_ZN4vips6VImage7clip2usEv
_ZN4vips6VImage7compassENS_6VIMaskE
_ZN4vips6VImage7convsepENS_6VDMaskE
_ZN4vips6VImage7convsepENS_6VIMaskE
_ZN4vips6VImage7convsubENS_6VIMaskEii
_ZN4vips6VImage7deviateEv
_ZN4vips6VImage7disp_psEv
_ZN4vips6VImage7extractEiiiii
_ZN4vips6VImage7fastcorES0_
_ZN4vips6VImage7fliphorEv
_ZN4vips6VImage7flipverEv
_ZN4vips6VImage7freqfltES0_
_ZN4vips6VImage7gradcorES0_
_ZN4vips6VImage7histcumEv
_ZN4vips6VImage7invfftrEv
_ZN4vips6VImage7lhisteqEii
_ZN4vips6VImage7litecorES0_id
_ZN4vips6VImage7lrmergeES0_iii
_ZN4vips6VImage7make_xyEii
_ZN4vips6VImage7measureEiiiiii
_ZN4vips6VImage7orimageES0_
_ZN4vips6VImage7orimageESt6vectorIdSaIdEE
_ZN4vips6VImage7orimageEi
_ZN4vips6VImage7profileEi
_ZN4vips6VImage7projectERS0_
_ZN4vips6VImage7rotquadEv
_ZN4vips6VImage7scalepsEv
_ZN4vips6VImage7segmentERi
_ZN4vips6VImage7sharpenEiddddd
_ZN4vips6VImage7tbmergeES0_iii
_ZN4vips6VImage7vips2dzEPc
_ZN4vips6VImage8Lab2LabQEv
_ZN4vips6VImage8Lab2LabSEv
_ZN4vips6VImage8Lab2dispENS_8VDisplayE
_ZN4vips6VImage8LabQ2LabEv
_ZN4vips6VImage8LabQ2XYZEv
_ZN4vips6VImage8LabS2LabEv
_ZN4vips6VImage8XYZ2dispENS_8VDisplayE
_ZN4vips6VImage8XYZ2sRGBEv
_ZN4vips6VImage8aconvsepENS_6VDMaskEi
_ZN4vips6VImage8andimageES0_
_ZN4vips6VImage8andimageESt6vectorIdSaIdEE
_ZN4vips6VImage8andimageEi
_ZN4vips6VImage8bandjoinES0_
_ZN4vips6VImage8bandmeanEv
_ZN4vips6VImage8buildlutENS_6VDMaskE
_ZN4vips6VImage8clip2dcmEv
_ZN4vips6VImage8clip2fmtEi
_ZN4vips6VImage8cmulnormES0_
_ZN4vips6VImage8cntlinesEi
_ZN4vips6VImage8conv_rawENS_6VIMaskE
_ZN4vips6VImage8convsepfENS_6VDMaskE
_ZN4vips6VImage8copy_setEiddii
_ZN4vips6VImage8csv2vipsEPc
_ZN4vips6VImage8disp2LabENS_8VDisplayE
_ZN4vips6VImage8disp2XYZENS_8VDisplayE
_ZN4vips6VImage8eorimageES0_
_ZN4vips6VImage8eorimageESt6vectorIdSaIdEE
_ZN4vips6VImage8eorimageEi
_ZN4vips6VImage8exr2vipsEPc
_ZN4vips6VImage8filenameEv
_ZN4vips6VImage8gradientENS_6VIMaskE
_ZN4vips6VImage8histnormEv
_ZN4vips6VImage8histplotEv
_ZN4vips6VImage8histspecES0_
_ZN4vips6VImage8identityEi
_ZN4vips6VImage8initdescEiiiNS0_8TBandFmtENS0_7TCodingENS0_5TTypeEffii
_ZN4vips6VImage8lrmerge1ES0_iiiiiiiii
_ZN4vips6VImage8lrmosaicES0_iiiiiiiii
_ZN4vips6VImage8maxvalueESt6vectorIS0_SaIS0_EE
_ZN4vips6VImage8meta_getEPKcP7_GValue
_ZN4vips6VImage8meta_setEPKcP7_GValue
_ZN4vips6VImage8meta_setEPKcPFiPvS3_ES3_
_ZN4vips6VImage8meta_setEPKcPFiPvS3_ES3_y
_ZN4vips6VImage8meta_setEPKcS2_
_ZN4vips6VImage8meta_setEPKcd
_ZN4vips6VImage8meta_setEPKci
_ZN4vips6VImage8mpercentEd
_ZN4vips6VImage8msb_bandEi
_ZN4vips6VImage8multiplyES0_
_ZN4vips6VImage8notequalES0_
_ZN4vips6VImage8notequalESt6vectorIdSaIdEE
_ZN4vips6VImage8notequalEd
_ZN4vips6VImage8png2vipsEPc
_ZN4vips6VImage8ppm2vipsEPc
_ZN4vips6VImage8rank_rawEiii
_ZN4vips6VImage8refblock11debug_printEv
_ZN4vips6VImage8refblock6addrefEPS1_
_ZN4vips6VImage8refblock9removerefEv
_ZN4vips6VImage8refblockC1Ev
_ZN4vips6VImage8refblockC2Ev
_ZN4vips6VImage8refblockD0Ev
_ZN4vips6VImage8refblockD1Ev
_ZN4vips6VImage8refblockD2Ev
_ZN4vips6VImage8remosaicEPcS1_
_ZN4vips6VImage8sRGB2XYZEv
_ZN4vips6VImage8stretch3Edd
_ZN4vips6VImage8subtractES0_
_ZN4vips6VImage8tbmerge1ES0_iiiiiiiii
_ZN4vips6VImage8tbmosaicES0_iiiiiiiii
_ZN4vips6VImage8tone_mapES0_
_ZN4vips6VImage8vips2csvEPc
_ZN4vips6VImage8vips2pngEPc
_ZN4vips6VImage8vips2ppmEPc
_ZN4vips6VImage9LabQ2LabSEv
_ZN4vips6VImage9LabQ2dispENS_8VDisplayE
_ZN4vips6VImage9LabS2LabQEv
_ZN4vips6VImage9addgnoiseEd
_ZN4vips6VImage9argb2rgbaEv
_ZN4vips6VImage9benchmarkEv
_ZN4vips6VImage9convf_rawENS_6VDMaskE
_ZN4vips6VImage9copy_fileEv
_ZN4vips6VImage9copy_swapEv
_ZN4vips6VImage9draw_lineEiiiiSt6vectorIdSaIdEE
_ZN4vips6VImage9draw_maskES0_iiSt6vectorIdSaIdEE
_ZN4vips6VImage9draw_rectEiiiiiSt6vectorIdSaIdEE
_ZN4vips6VImage9erode_rawENS_6VIMaskE
_ZN4vips6VImage9fits2vipsEPc
_ZN4vips6VImage9float2radEv
_ZN4vips6VImage9fractsurfEid
_ZN4vips6VImage9gbandjoinESt6vectorIS0_SaIS0_EE
_ZN4vips6VImage9icc_ac2rcEPc
_ZN4vips6VImage9invertlutENS_6VDMaskEi
_ZN4vips6VImage9jpeg2vipsEPc
_ZN4vips6VImage9lab_morphENS_6VDMaskEdddd
_ZN4vips6VImage9lindetectENS_6VIMaskE
_ZN4vips6VImage9lrmosaic1ES0_iiiiiiiiiiiii
_ZN4vips6VImage9mask2vipsENS_6VDMaskE
_ZN4vips6VImage9print_allEv
_ZN4vips6VImage9printdescEv
_ZN4vips6VImage9quadraticES0_
_ZN4vips6VImage9rad2floatEv
_ZN4vips6VImage9remainderES0_
_ZN4vips6VImage9remainderESt6vectorIdSaIdEE
_ZN4vips6VImage9remainderEd
_ZN4vips6VImage9replicateEii
_ZN4vips6VImage9shiftleftESt6vectorIdSaIdEE
_ZN4vips6VImage9shiftleftEi
_ZN4vips6VImage9spcor_rawES0_
_ZN4vips6VImage9stdif_rawEddddii
_ZN4vips6VImage9subsampleEii
_ZN4vips6VImage9tbmosaic1ES0_iiiiiiiiiiiii
_ZN4vips6VImage9tiff2vipsEPc
_ZN4vips6VImage9vips2jpegEPc
_ZN4vips6VImage9vips2maskEv
_ZN4vips6VImage9vips2tiffEPc
_ZN4vips6VImageC1EP10_VipsImage
_ZN4vips6VImageC1EPKcS2_
_ZN4vips6VImageC1EPviiiNS0_8TBandFmtE
_ZN4vips6VImageC1ERKS0_
_ZN4vips6VImageC1Ev
_ZN4vips6VImageC2EP10_VipsImage
_ZN4vips6VImageC2EPKcS2_
_ZN4vips6VImageC2EPviiiNS0_8TBandFmtE
_ZN4vips6VImageC2ERKS0_
_ZN4vips6VImageC2Ev
_ZN4vips6VImageD0Ev
_ZN4vips6VImageD1Ev
_ZN4vips6VImageaSERKS0_
_ZN4vips6verrorENSt7__cxx1112basic_stringIcSt11char_traitsIcESaIcEEE
_ZN4vips8VDisplay8refblock5clutsEv
_ZN4vips8VDisplay8refblock6wreadyEv
_ZN4vips8VDisplay8refblock8cleanlutEv
_ZN4vips8VDisplay8refblock8cleanrefEv
_ZN4vips8VDisplayC1EPKc
_ZN4vips8VDisplayC1Ev
_ZN4vips8VDisplayC2EPKc
_ZN4vips8VDisplayC2Ev
_ZN4vips8VDisplayD0Ev
_ZN4vips8VDisplayD1Ev
_ZN4vips8VDisplayD2Ev
_ZN4vips8VDisplayaSERKS0_
_ZN4vips8shutdownEv
_ZNK4vips15_private_detail7VPDMask13ostream_printERSo
_ZNK4vips15_private_detail7VPDMask3dupEv
_ZNK4vips15_private_detail7VPDMask5arrayEv
_ZNK4vips15_private_detail7VPDMask5scaleEv
_ZNK4vips15_private_detail7VPDMask5xsizeEv
_ZNK4vips15_private_detail7VPDMask5ysizeEv
_ZNK4vips15_private_detail7VPDMask6offsetEv
_ZNK4vips15_private_detail7VPDMask8filenameEv
_ZNK4vips15_private_detail7VPIMask13ostream_printERSo
_ZNK4vips15_private_detail7VPIMask3dupEv
_ZNK4vips15_private_detail7VPIMask5arrayEv
_ZNK4vips15_private_detail7VPIMask5scaleEv
_ZNK4vips15_private_detail7VPIMask5xsizeEv
_ZNK4vips15_private_detail7VPIMask5ysizeEv
_ZNK4vips15_private_detail7VPIMask6offsetEv
_ZNK4vips15_private_detail7VPIMask8filenameEv
_ZNK4vips5VMask13ostream_printERSo
_ZNK4vips6VError13ostream_printERSo
_ZNK4vips6VError4whatEv
_ZNK4vips6VImage4dataEv
_ZTIN4vips15_private_detail6VPMaskE DATA
_ZTIN4vips15_private_detail7VPDMaskE DATA
_ZTIN4vips15_private_detail7VPIMaskE DATA
_ZTIN4vips5VMask8refblockE DATA
_ZTIN4vips5VMaskE DATA
_ZTIN4vips6VDMaskE DATA
_ZTIN4vips6VErrorE DATA
_ZTIN4vips6VIMaskE DATA
_ZTIN4vips6VImage8refblockE DATA
_ZTIN4vips6VImageE DATA
_ZTIN4vips8VDisplayE DATA
_ZTISt9exception DATA
_ZTSN4vips15_private_detail6VPMaskE DATA
_ZTSN4vips15_private_detail7VPDMaskE DATA
_ZTSN4vips15_private_detail7VPIMaskE DATA
_ZTSN4vips5VMask8refblockE DATA
_ZTSN4vips5VMaskE DATA
_ZTSN4vips6VDMaskE DATA
_ZTSN4vips6VErrorE DATA
_ZTSN4vips6VIMaskE DATA
_ZTSN4vips6VImage8refblockE DATA
_ZTSN4vips6VImageE DATA
_ZTSN4vips8VDisplayE DATA
_ZTSSt9exception DATA
_ZTVN4vips15_private_detail7VPDMaskE DATA
_ZTVN4vips15_private_detail7VPIMaskE DATA
_ZTVN4vips5VMask8refblockE DATA
_ZTVN4vips5VMaskE DATA
_ZTVN4vips6VDMaskE DATA
_ZTVN4vips6VErrorE DATA
_ZTVN4vips6VIMaskE DATA
_ZTVN4vips6VImage8refblockE DATA
_ZTVN4vips6VImageE DATA
_ZTVN4vips8VDisplayE DATA
